(lp0
(dp1
S'url'
p2
Vhttp://cache.baidu.com/c?m=9f65cb4a8c8507ed4fece763105392230e54f732668c8c4668d4e419ce3b4c413037bfa6797545578dd87c6502aa5e5c9cf2316f34033de6c694ce1d81fd852f5b8e253e721e8c4215c419d891007ad565cd1abfa00e96cbe74397b9a2a5c82222&p=856d8d1786cc42fa11be9b7c59&newp=8f64c54ad59d14fc57efde221b53d8234f08d30e3dc3864e1290c408d23f061d4866e0bd22241a05d7c3777347c2080ba8ff612e615d75&user=baidu&fm=sc&query=%CC%C6%BD%DC&qid=e13682c90007b45d&p1=1
p3
sS'text'
p4
(dp5
V\u516c\u5e73\u6b63\u4e49
p6
I5
sV\u5efa\u8bae
p7
I3
sV\u53d7\u8d3f\u6848
p8
I3
sV\u68c0\u5bdf\u5b98
p9
I4
sV\u4eba\u6c11\u6cd5\u9662
p10
I3
sV\u6848\u4ef6
p11
I9
sV\u79f0\u53f7
p12
I3
sV\u4eba\u6c11\u68c0\u5bdf\u9662
p13
I6
sV\u5f90\u56fd
p14
I6
sV\u529e\u6848
p15
I3
sV\u53f8\u6cd5
p16
I3
sV\u516c\u8bc9\u4eba
p17
I3
sV\u6cd5\u5f8b
p18
I6
sV\u6e56\u5357
p19
I4
sV\u88ab\u544a\u4eba
p20
I4
sV\u7fa4\u4f17
p21
I3
sV\u5168\u7701
p22
I3
sV\u68c0\u5bdf\u9662
p23
I5
sV\u529e\u7406
p24
I3
sV\u90b5\u9633\u5e02
p25
I16
ssS'type'
p26
S'news'
p27
sa(dp28
g2
Vhttp://cache.baidu.com/c?m=9f65cb4a8c8507ed4fece763104c903a4a0897634b938d4468d4e419ce3b4c413037bfa67462565f829b2b7a01ad4a59e8f72b72350025b59ccb8b49daba932a288f223e760b8636489546f1df037881769f4d98de0e96bee742e5b9a4a2&p=8b2a970e8f9118f308e295754753&newp=876ed416d9c11abe0abd9b7f064192695c02dc3051dcd701298ffe0cc4241a1a1a3aecbb24241502d9c478610abb0f31aba7747d605f76ec8a9a&user=baidu&fm=sc&query=%CC%C6%BD%DC&qid=e13682c90007b45d&p1=2
p29
sg4
(dp30
V\u5efa\u8bae
p31
I3
sV\u516c\u8bc9\u4eba
p32
I3
sV\u53d7\u8d3f\u6848
p33
I3
sV\u536b\u58eb
p34
I3
sV\u90b5\u9633\u5e02
p35
I18
sV\u6848\u4ef6
p36
I9
sV\u79f0\u53f7
p37
I3
sV\u4eba\u6c11\u68c0\u5bdf\u9662
p38
I6
sV\u5f90\u56fd
p39
I6
sV\u529e\u6848
p40
I3
sV\u53f8\u6cd5
p41
I3
sV\u529e\u7406
p42
I3
sV\u6cd5\u5f8b
p43
I6
sV\u88ab\u544a\u4eba
p44
I4
sV\u516c\u5e73\u6b63\u4e49
p45
I6
sV\u79d1\u79d1\u957f
p46
I3
sV\u5168\u7701
p47
I3
sV\u68c0\u5bdf\u9662
p48
I6
sV\u4eba\u6c11\u6cd5\u9662
p49
I3
sV\u6700\u9ad8\u4eba\u6c11\u68c0\u5bdf\u9662
p50
I3
ssg26
g27
sa(dp51
g2
Vhttp://cache.baidu.com/c?m=9d78d513d9d430de4f9c90697d60c0106840c72362d88a5339968449e07946151c3ab0e776750704a49e28305dfa5e5c9da16b2d2a503db799cb8d48dbbb91352c8f2637711a814405d46daddc4652807ad605b7&p=8b2a9703cc8818e604bd9b7e0e1083&newp=9078c54ad6c047fd00b8f82d0214c6231610db2151d0d601298ffe0cc4241a1a1a3aecbf21221205d6ce7a6604aa4358eff03274350034f1f689df08d2ecce7e7dd07258&user=baidu&fm=sc&query=%CC%C6%BD%DC&qid=e13682c90007b45d&p1=3
p52
sg4
(dp53
V\u6559\u6388
p54
I9
sV\u793e\u4f1a
p55
I6
sV\u65f6\u4ee3
p56
I4
sV\u6b27\u6d32
p57
I4
sV\u5236\u5ea6
p58
I3
sV\u7ecf\u6d4e
p59
I3
sV\u534e\u5927\u57fa\u56e0
p60
I10
sV\u519c\u4e1a
p61
I3
sV\u6df1\u5733
p62
I6
sV\u79d1\u5b66\u754c
p63
I3
sV\u79d1\u6280
p64
I9
sV\u5f62\u6001
p65
I3
sV\u56fd\u5bb6
p66
I2
sV\u79d1\u5b66
p67
I5
sV\u4e2d\u56fd
p68
I18
sV\u5386\u53f2
p69
I3
sV\u5de5\u4e1a\u9769\u547d
p70
I4
sV\u95ee\u9898
p71
I4
sV\u65b0\u4e00\u8f6e
p72
I4
sV\u54c8\u5c14\u6ee8\u5de5\u4e1a\u5927\u5b66
p73
I3
ssg26
g27
sa(dp74
g2
Vhttp://cache.baidu.com/c?m=9f65cb4a8c8507ed4fece76310489f711923dc347996914468d4e415d33146000c27a5ec783f1006d0c07e6101ab545ee8f03576330427b38cc8ff109be4cc3c6ad567627f0bf73005a21db8bb3032b751&p=882a914087904ead06b9c3684942&newp=9134cd1f91934eab5dbbc7710f5192695803ed6337d5d601298ffe0cc4241a1a1a3aecbf21211b00d2ce796206ab425aeefa3071330034f1f689df08d2ecce7e79&user=baidu&fm=sc&query=%CC%C6%BD%DC&qid=e13682c90007b45d&p1=4
p75
sg4
(dp76
V\u4e66\u8bb0
p77
I1
sV\u4ea4\u901a\u5c40
p78
I3
sV\u65e5\u8baf
p79
I2
sV\u5f62\u5f0f
p80
I1
sV\u53d9\u6c38\u53bf
p81
I2
sV\u53bf\u957f
p82
I1
sV\u5927\u5bb6
p83
I1
sV\u8d22\u653f\u5c40
p84
I3
sV\u9053\u8def\u4ea4\u901a
p85
I2
sV\u53bf\u59d4
p86
I1
sV\u5efa\u5c40
p87
I1
sV\u56db\u5ddd
p88
I2
sV\u63aa\u65bd
p89
I1
sV\u65b0\u95fb\u7f51
p90
I2
sV\u6cf8\u5dde
p91
I2
sV\u529b\u5ea6
p92
I1
sV\u7763\u5bfc
p93
I1
sV\u6c34\u52a1\u5c40
p94
I1
sV\u91cd\u70b9
p95
I2
sV\u957f\u6548\u673a\u5236
p96
I1
ssg26
g27
sa(dp97
g2
Vhttp://cache.baidu.com/c?m=9f65cb4a8c8507ed4fece763105392230e54f72274c0d0622a89d75f93130a1d5a37bfa66d68455dce8d282d4bfa1141baaf60342a0322b49eca89579bbb902b2a8a2637770b813516d11da4ca4d23d620e700aff00da2e7b0649cb9a3a2c82557dd23736df681&p=882a9646d39212a05ab3c0291b5283&newp=9134cd1f91934eac5be8c22d021490231615d70e3fd5d4116b82c825d7331b001c3bbfb423241006d6c47d6205ae4257ecf73577300127a3dda5c91d9fb4c57479de&user=baidu&fm=sc&query=%CC%C6%BD%DC&qid=e13682c90007b45d&p1=5
p98
sg4
(dp99
V\u4e66\u8bb0
p100
I1
sV\u6df1\u5733
p101
I8
sV\u529e\u516c\u5ba4
p102
I1
sV\u9879\u76ee
p103
I3
sV\u73b0\u573a
p104
I1
sV\u5de5\u52a1
p105
I4
sV\u538b\u529b
p106
I1
sV\u515a\u59d4\u4e66\u8bb0
p107
I1
sV\u4f18\u8d28
p108
I1
sV\u5efa\u7b51
p109
I3
sV\u9879\u76ee\u7ec4
p110
I1
sV\u5b66\u6821
p111
I2
sV\u6c57\u6c34
p112
I1
sV\u6821\u65b9
p113
I1
sV\u54c8\u5c14\u6ee8\u5de5\u4e1a\u5927\u5b66
p114
I12
sV\u60c5\u51b5\u6c47\u62a5
p115
I1
sV\u6821\u533a
p116
I1
sV\u6821\u56ed
p117
I1
sV\u6052\u5229
p118
I4
sV\u5ea7\u8c08
p119
I1
ssg26
g27
sa(dp120
g2
Vhttp://cache.baidu.com/c?m=9d78d513d9d430de4f9c90697d60c0106840c72362d88a5339968449e07946151c3ab0e776750704a484273b52b8492bbbad6965377471eb8688d51483a6922a2c8c3034061f865612a519abd610789037902cb2fb53acf0b463d3abd5d4d95554cd44050dc1aacd055e&p=882a9545d49157fc57efca355557c6&newp=8b2a97069c934eaf58efc923114380231610db2151d7db116b82c825d7331b001c3bbfb42324130fd3c0786707ac4b59eff23570310221a3dda5c91d9fb4c57479cb6d&user=baidu&fm=sc&query=%CC%C6%BD%DC&qid=e13682c90007b45d&p1=6
p121
sg4
(dp122
V\u4e3b\u4f53
p123
I2
sV\u5e02\u573a\u5316
p124
I2
sV\u6df1\u5733
p125
I28
sV\u653f\u5e9c
p126
I4
sV\u7a0b\u5ea6
p127
I2
sV\u5168\u56fd
p128
I2
sV\u57ce\u5e02
p129
I2
sV\u521b\u4e1a\u8005
p130
I2
sV\u4ea7\u4e1a
p131
I3
sV\u4e2d\u5174
p132
I2
sV\u7ecf\u9a8c
p133
I2
sV\u5927\u91cf
p134
I2
sV\u5757\u94b1
p135
I2
sV\u65f6\u5019
p136
I2
sV\u98ce\u9669
p137
I1
sV\u6cd5\u6cbb\u5316
p138
I4
sV\u54c8\u5de5\u5927
p139
I3
sV\u4f01\u4e1a
p140
I6
sV\u7ecf\u6d4e
p141
I2
sV\u901f\u5ea6
p142
I2
ssg26
g27
sa(dp143
g2
Vhttp://cache.baidu.com/c?m=9d78d513d9d430de4f9c90697d60c0106840c72362d88a5339968449e079461e1a3ab4f030226707d7c46b6776fe1403f7f3326f340320b186ca8f57acb0915c2e882c3f721e864618d07bcddc46529b66cf04&p=8c36c54ad6c046ef0be296285c4fa5&newp=8b2a971a91821dff57ed9779517a98231610db2151d4d1126b82c825d7331b001c3bbfb423241006d6c47d6205ae4257e0f535713d012ba3dda5c91d9fb4c57479d760752c&user=baidu&fm=sc&query=%CC%C6%BD%DC&qid=e13682c90007b45d&p1=7
p144
sg4
(dp145
V\u4e3b\u4f53
p146
I2
sV\u5e02\u573a\u5316
p147
I3
sV\u6df1\u5733
p148
I32
sV\u7ecf\u9a8c
p149
I3
sV\u7a0b\u5ea6
p150
I2
sV\u5168\u56fd
p151
I2
sV\u6cd5\u6cbb\u5316
p152
I6
sV\u57ce\u5e02
p153
I2
sV\u521b\u4e1a\u8005
p154
I2
sV\u4ea7\u4e1a
p155
I3
sV\u4e2d\u5174
p156
I2
sV\u653f\u5e9c
p157
I4
sV\u5757\u94b1
p158
I2
sV\u901f\u5ea6
p159
I2
sV\u5927\u91cf
p160
I2
sV\u65f6\u5019
p161
I2
sV\u54c8\u5de5\u5927
p162
I3
sV\u4f01\u4e1a
p163
I6
sV\u7ecf\u6d4e
p164
I2
sV\u5e02\u957f
p165
I2
ssg26
g27
sa(dp166
g2
Vhttp://cache.baidu.com/c?m=9d78d513d9d430de4f9c90697d60c0106840c72362d88a5339968449e079461d1023a2ac2755515e8cd27c1050f2164bea87672e2a0322b49edf883cdfbb8f282b9576692c5ad11d54c41edbcd412fc1229459feaf6ebdfcaf&p=8c36c54ad6c042ef0be296285c4fa5&newp=8b2a971a91821dff57ed977d517a98231610db2151d4d0166b82c825d7331b001c3bbfb423241006d6c47d6205ae4257e0f535713d012ba3dda5c91d9fb4c57479d760752c&user=baidu&fm=sc&query=%CC%C6%BD%DC&qid=e13682c90007b45d&p1=8
p167
sg4
(dp168
V\u4e0d\u6210\u6587
p169
I2
sV\u767e\u59d3
p170
I4
sV\u6b7b\u8005
p171
I2
sV\u4e8b\u60c5
p172
I2
sV\u4e1a\u52a1
p173
I3
sV\u804c\u4e1a\u9053\u5fb7
p174
I2
sV\u5b89\u4e50
p175
I2
sV\u5f8b\u5e08
p176
I20
sV\u5c71\u4e1c
p177
I2
sV\u70df\u53f0
p178
I3
sV\u5bf9\u65b9
p179
I4
sV\u4e8b\u52a1\u6240
p180
I7
sV\u540c\u6770
p181
I2
sV\u8bb0\u8005
p182
I4
sV\u4ed9\u5c71
p183
I2
sV\u6cd5\u5f8b
p184
I2
sV\u5c71\u4e1c\u7701
p185
I4
sV\u804c\u4e1a
p186
I3
sV\u54c1\u884c
p187
I2
sV\u4f24\u8005
p188
I3
ssg26
g27
sa(dp189
g2
Vhttp://cache.baidu.com/c?m=9d78d513d9d430de4f9c90697d60c0106840c72362d88a5339968449e07946040223f4bb50601741c4c50b3b56e95400bdb5776f625f71ef86c88a49d9b8923569882537741f864214c41edbc84221c725915bfeaf6ebdfcaf&p=882a9546d59157fc57efca355557c6&newp=8b2a97069c934eaf5beec923114380231610db2151d4d41e6b82c825d7331b001c3bbfb42324130ed4c5776400ac4e5fedfa3371370221a3dda5c91d9fb4c57479cb6d&user=baidu&fm=sc&query=%CC%C6%BD%DC&qid=e13682c90007b45d&p1=9
p190
sg4
(dp191
V\u78b3\u7ea4\u7ef4
p192
I4
sV\u65e5\u672c
p193
I6
sV\u6df1\u5733
p194
I32
sV\u653f\u5e9c
p195
I4
sV\u9ad8\u7aef
p196
I2
sV\u7ecf\u6d4e
p197
I3
sV\u9c7c\u7aff
p198
I2
sV\u57ce\u5e02
p199
I4
sV\u6750\u6599
p200
I7
sV\u57fa\u7840
p201
I4
sV\u4ea7\u4e1a
p202
I6
sV\u6a21\u5f0f
p203
I2
sV\u88c5\u5907
p204
I2
sV\u54c8\u5de5\u5927
p205
I3
sV\u4e16\u7eaa
p206
I3
sV\u8bb0\u8005
p207
I3
sV\u624b\u673a
p208
I2
sV\u9502\u7535\u6c60
p209
I4
sV\u7fbd\u6bdb\u7403\u62cd
p210
I2
sV\u822a\u6a21
p211
I3
ssg26
g27
sa(dp212
g2
Vhttp://cache.baidu.com/c?m=9d78d513d9d430de4f9c90697d60c0106840c72362d88a5339968449e079461f0f71e3cc7b75554592946b6776f20909f7b17d3371547faa9bca8b4edebb9222328a25347216824412d10eafbc1c639e7e&p=8c36c54ad2c901fc57efc22f5464&newp=8b2a971a91821dff57e99e22615992695803ed623ed7d701298ffe0cc4241a1a1a3aecbf21211b00d2ce796206ab425aeefa3071330034f1f689df08d2ecce7e70cf6668&user=baidu&fm=sc&query=%CC%C6%BD%DC&qid=e13682c90007b45d&p1=11
p213
sg4
(dp214
V\u4e66\u8bb0
p215
I1
sV\u53bf\u957f
p216
I1
sV\u65e5\u8baf
p217
I2
sV\u8d1f\u8d23\u4eba
p218
I1
sV\u53d9\u6c38\u53bf
p219
I2
sV\u9632\u8303\u63aa\u65bd
p220
I1
sV\u6d88\u9632
p221
I1
sV\u610f\u8bc6
p222
I1
sV\u65b9\u9762
p223
I1
sV\u56db\u5ddd
p224
I2
sV\u8d23\u4efb
p225
I1
sV\u52a0\u6cb9\u7ad9
p226
I3
sV\u65b0\u95fb\u7f51
p227
I2
sV\u4e3b\u4f53
p228
I1
sV\u4e8b\u6545
p229
I1
sV\u540c\u6b63\u534e
p230
I2
sV\u6cf8\u5dde
p231
I2
sV\u4f01\u4e1a
p232
I2
sV\u8fc7\u7a0b
p233
I1
sV\u529e\u516c\u5ba4
p234
I1
ssg26
g27
sa(dp235
g2
Vhttp://cache.baidu.com/c?m=9f65cb4a8c8507ed4fece763104f87711923c13e7b918a4423c3933fc239045c163bbffd707e5619d3c77f6316af3f5feaed35782a527debdd9fd40ccabce62b2b8b2d3f7519864b05d36ef58d1931847dd00ce6b86896ad813684dea4c4a925&p=882a904e87904ead06b9c3684942&newp=9134cd1f91934eaa53bbc7710f5192695803ed6037d0d401298ffe0cc4241a1a1a3aecbf21211a0fd3c77f6102ad4857ebf13374320234f1f689df08d2ecce7e79&user=baidu&fm=sc&query=%CC%C6%BD%DC&qid=e13682c90007b45d&p1=13
p236
sg4
(dp237
V\u7ecf\u6d4e
p238
I2
sV\u6df1\u5733
p239
I10
sV\u653f\u5e9c
p240
I3
sV\u5357\u65b9\u7f51\u8baf
p241
I2
sV\u54c8\u5c14\u6ee8\u5de5\u4e1a\u5927\u5b66
p242
I3
sV\u6cd5\u6cbb
p243
I1
sV\u6df1\u5733\u5e02
p244
I4
sV\u57ce\u5e02
p245
I4
sV\u5e38\u6001
p246
I1
sV\u515a\u59d4\u4e66\u8bb0
p247
I1
sV\u4ea7\u4e1a
p248
I4
sV\u65e5\u672c
p249
I2
sV\u9999\u6e2f\u7406\u5de5\u5927\u5b66
p250
I3
sV\u5546\u4e1a\u4e2d\u5fc3
p251
I3
sV\u4ea7\u54c1
p252
I2
sV\u4e2d\u56fd
p253
I2
sV\u6cd5\u6cbb\u5316
p254
I6
sV\u603b\u5e72\u4e8b
p255
I1
sV\u4f01\u4e1a
p256
I3
sV\u76f4\u8a00
p257
I2
ssg26
g27
sa(dp258
g2
Vhttp://cache.baidu.com/c?m=9d78d513d9d430de4f9c90697d60c0106840c72362d88a5339968449e079461d1023a2ac27555a428e9b6b6776fe1541eaf235762a0023b791d58f48d6bb9223259f27433146c01e4c&p=8b2a9703cc8818e604bd9b7e0d1583&newp=9078c54ad6c342fd00b8f82d0214c6231610db2151d7d6176b82c825d7331b001c3bbfb42324130ed8c57e6407ac4b5aebf73771320625a3dda5c91d9fb4c57479da7f611c&user=baidu&fm=sc&query=%CC%C6%BD%DC&qid=e13682c90007b45d&p1=15
p259
sg4
(dp260
V\u653f\u5e9c
p261
I2
sV\u515a\u4e2d\u592e
p262
I3
sV\u671d\u9633
p263
I2
sV\u547c\u58f0
p264
I2
sV\u6e58\u6f6d
p265
I2
sV\u4eba\u5927\u5e38\u59d4\u4f1a
p266
I15
sV\u5e02\u957f
p267
I3
sV\u97f6\u5c71\u5e02
p268
I16
sV\u6c11\u751f
p269
I4
sV\u4eba\u6c11\u4ee3\u8868\u5927\u4f1a
p270
I3
sV\u5e02\u59d4
p271
I2
sV\u97f6\u5c71
p272
I10
sV\u6e58\u6f6d\u5e02
p273
I6
sV\u4eba\u6c11\u653f\u5e9c
p274
I9
sV\u5168\u5e02
p275
I2
sV\u7fa4\u4f17
p276
I3
sV\u540c\u5fd7
p277
I8
sV\u4eba\u6c11
p278
I4
sV\u4eba\u6c11\u6cd5\u9662
p279
I6
sV\u4eba\u6c11\u68c0\u5bdf\u9662
p280
I9
ssg26
g27
sa(dp281
g2
Vhttp://cache.baidu.com/c?m=9f65cb4a8c8507ed4fece763104f87711923c13e7b918a4423c3933fc239045c163bbffd707e5619d3c77f6316af3f5fe9ed35772a527debdd9fd40ccabce62b28832d3e7a1a8d4005d36ef58d1931847dd00ce6b86896ad813684dea4c4a925&p=882a9545d49212a05ab3c0291b5283&newp=9134cd1f91934eaf58efc22d021490231610db2151d6d2136b82c825d7331b001c3bbfb42324130fd3c0786707ac4b59eff23570310221a3dda5c91d9fb4c57479de&user=baidu&fm=sc&query=%CC%C6%BD%DC&qid=e13682c90007b45d&p1=16
p282
sg4
(dp283
V\u6df1\u5733
p284
I16
sV\u4f01\u4e1a
p285
I2
sV\u534e\u5f3a\u5317
p286
I8
sV\u5de5\u4e1a\u533a
p287
I2
sV\u67dc\u53f0
p288
I2
sV\u9ad8\u79d1\u6280
p289
I2
sV\u57ce\u5e02
p290
I4
sV\u6df1\u5733\u5e02\u4eba\u6c11\u653f\u5e9c
p291
I3
sV\u4ea7\u4e1a
p292
I2
sV\u8f6c\u578b
p293
I2
sV\u5927\u57ce\u5e02
p294
I2
sV\u7a7a\u5fc3\u5316
p295
I2
sV\u7ea2\u5229
p296
I2
sV\u4ea7\u54c1
p297
I2
sV\u5927\u90fd\u5e02
p298
I2
sV\u5fb7\u56fd
p299
I2
sV\u673a\u4f1a
p300
I2
sV\u8fc7\u7a0b
p301
I3
sV\u8d5b\u683c
p302
I2
sV\u5236\u9020\u4e1a
p303
I4
ssg26
g27
sa(dp304
g2
Vhttp://cache.baidu.com/c?m=9f65cb4a8c8507ed4fece76310489f711923dc347996914468d4e415d33146000c27a5ec783f1006d0c17f6401ac545ee8f03476350922bc8cc8ff109be4cc3c6ad567627f0bf73005a21db8bb3032b751&p=856d8d1786cc42a45cb8dd2d021483&newp=8f64c54ad5c845f10dbe9b7c474ac1231610db2151d4d31e6b82c825d7331b001c3bbfb423241006d6c47d6205ae4257e0f535713d012ba3dda5c91d9fb4c57479d672&user=baidu&fm=sc&query=%CC%C6%BD%DC&qid=e13682c90007b45d&p1=17
p305
sg4
(dp306
V\u4e66\u8bb0
p307
I1
sV\u53bf\u957f
p308
I1
sV\u90d1\u9633
p309
I2
sV\u5ca9\u533a
p310
I1
sV\u5927\u77f3
p311
I2
sV\u53d9\u6c38\u53bf
p312
I2
sV\u65e9\u5b89\u6392
p313
I3
sV\u5c71\u533a
p314
I2
sV\u7af9\u6797
p315
I2
sV\u65e5\u8baf
p316
I2
sV\u56db\u5ddd
p317
I2
sV\u4f4f\u623f
p318
I1
sV\u53d9\u6c38
p319
I2
sV\u4efb\u52a1
p320
I2
sV\u65b0\u95fb\u7f51
p321
I2
sV\u6cf8\u5dde
p322
I2
sV\u53bf\u59d4
p323
I1
sV\u7763\u5bfc
p324
I2
sV\u4ea4\u901a
p325
I2
sV\u8d44\u6e90
p326
I2
ssg26
g27
sa(dp327
g2
Vhttp://cache.baidu.com/c?m=9f65cb4a8c8507ed4fece76310489f711923dc347996914468d4e415d33146000c27a5ec783f1006d0c17f6401ac545ee8f0347635072ab38cc8ff109be4cc3c6ad567627f0bf73005a21db8bb3032b751&p=8b2a970e8f9118f308e29e7e4753&newp=876ed416d9c11abe0abd9b740d4192695803ed623ed6db01298ffe0cc4241a1a1a3aecbf21211b00d2ce796206ab425aeefa3071330034f1f689df08d2ecce7e749975&user=baidu&fm=sc&query=%CC%C6%BD%DC&qid=e13682c90007b45d&p1=18
p328
sg4
(dp329
V\u4e66\u8bb0
p330
I1
sV\u53bf\u957f
p331
I1
sV\u65e5\u8baf
p332
I2
sV\u53d9\u6c38\u53bf
p333
I2
sV\u8d2b\u56f0\u6237
p334
I3
sV\u5b69\u5b50
p335
I1
sV\u571f\u9e21
p336
I1
sV\u53bf\u59d4
p337
I1
sV\u5bb6\u5ead
p338
I1
sV\u56db\u5ddd
p339
I2
sV\u4ea7\u4e1a
p340
I1
sV\u65b0\u95fb\u7f51
p341
I2
sV\u6cf8\u5dde
p342
I2
sV\u751f\u732a
p343
I1
sV\u6761\u4ef6
p344
I1
sV\u60c5\u51b5
p345
I3
sV\u5929\u6c60
p346
I4
sV\u6218\u7565
p347
I1
sV\u8d23\u4efb\u4eba
p348
I1
sV\u8bb8\u5ddd
p349
I2
ssg26
g27
sa(dp350
g2
Vhttp://cache.baidu.com/c?m=9d78d513d9d430de4f9c90697d60c0106840c72362d88a5339968449e07946151c3ab0e776750704a484273b52b8492bbbad6965377471eb8688d51483a6922a2c8c3034061e8c5612a519a5d610789037902cb2fb53a3e1ba65d3abd3d5da5e57ce44050dc1aacd055e&p=882a9545d4d219b50be2963f574c9c&newp=903dd22985cc43ff57ed947c7f5183231610db2151d7da106b82c825d7331b001c3bbfb42324130fd3c0786707ac4b59eff23570310221a3dda5c91d9fb4c57479&user=baidu&fm=sc&query=%CC%C6%BD%DC&qid=e13682c90007b45d&p1=20
p351
sg4
(dp352
V\u5173\u7cfb
p353
I4
sV\u7ecf\u6d4e
p354
I29
sV\u653f\u5e9c
p355
I11
sV\u4ea7\u4e1a\u653f\u7b56
p356
I5
sV\u6e29\u5dde
p357
I10
sV\u6539\u9769\u5f00\u653e
p358
I6
sV\u653f\u7b56
p359
I5
sV\u57ce\u5e02
p360
I8
sV\u5730\u65b9
p361
I6
sV\u6574\u4f53
p362
I4
sV\u8f6c\u578b
p363
I6
sV\u95ee\u9898
p364
I9
sV\u503a\u52a1
p365
I4
sV\u610f\u5927\u5229
p366
I6
sV\u7f8e\u56fd
p367
I6
sV\u4e2d\u56fd
p368
I22
sV\u4e2d\u592e
p369
I6
sV\u4f01\u4e1a
p370
I10
sV\u4ea7\u4e1a
p371
I5
sV\u6210\u90fd
p372
I12
ssg26
g27
sa(dp373
g2
Vhttp://cache.baidu.com/c?m=9d78d513d9d430de4f9c90697d60c0106840c72362d88a5339968449e07946001671e3cc65754d468d926b6776fe1403fdf041236b1e7cb786c88a49d9a690232d833a65711a814610d80eafbd462fca259b5febaf0ee7cdaa74ccf0&p=882a954ec79b5bfc57efd524575d&newp=903dd22985cc43ff57ed9f0c4a4292695803ed663dddc44324b9d71fd325001c1b69e7bd27201101d8c37d6204a5495bebf03479321766dada9fca458ae7c4&user=baidu&fm=sc&query=%CC%C6%BD%DC&qid=e13682c90007b45d&p1=21
p374
sg4
(dp375
V\u4e66\u8bb0
p376
I1
sV\u7ecf\u6d4e
p377
I2
sV\u793e\u4f1a
p378
I1
sV\u5730\u65b9
p379
I1
sV\u5168\u53bf
p380
I3
sV\u53bf\u957f
p381
I1
sV\u5de5\u7a0b\u5e08
p382
I1
sV\u53d1\u529b
p383
I1
sV\u53bf\u59d4
p384
I1
sV\u57fa\u7840
p385
I1
sV\u5c0f\u5eb7\u793e\u4f1a
p386
I1
sV\u6559\u5b66
p387
I1
sV\u53d9\u6c38
p388
I4
sV\u90e8\u95e8
p389
I2
sV\u8d28\u91cf
p390
I2
sV\u4eba\u7c7b
p391
I1
sV\u4e8b\u4e1a
p392
I1
sV\u5148\u8fdb\u96c6\u4f53
p393
I1
sV\u4eba\u6c11
p394
I2
sV\u57fa\u7840\u6027
p395
I1
ssg26
g27
sa(dp396
g2
Vhttp://cache.baidu.com/c?m=9f65cb4a8c8507ed4fece763104a8023584380143fd3d1027fa3c215cc7958455a64e6bb2d3f1307ceb51a6770cf2d2196f23470340553c0ecdf883d87fdcd763bcd7a742613913063c468abdc3653d656e1&p=8b2a9717959b11a058ee902f4c5392&newp=8779c54ad6c045ec06be9b7c5c0e88231610db2151d0d401298ffe0cc4241a1a1a3aecbf21221205d6ce7a6604aa4358eff03274350034f1f689df08d2ecce7e6cd6&user=baidu&fm=sc&query=%CC%C6%BD%DC&qid=e13682c90007b45d&p1=22
p397
sg4
(dp398
V\u4e66\u8bb0
p399
I3
sV\u65e5\u8baf
p400
I2
sV\u5e02\u59d4\u4e66\u8bb0
p401
I4
sV\u6e58\u6f6d
p402
I2
sV\u5206\u7ad9
p403
I1
sV\u804c\u52a1
p404
I2
sV\u5927\u4f1a
p405
I1
sV\u6807\u9898
p406
I2
sV\u5e02\u59d4
p407
I4
sV\u540c\u5fd7
p408
I5
sV\u515a\u653f
p409
I1
sV\u97f6\u5c71
p410
I16
sV\u7ea2\u7f51
p411
I2
sV\u8bb0\u8005
p412
I1
sV\u97f6\u5c71\u5e02
p413
I10
sV\u5e02\u957f
p414
I5
sV\u5e72\u90e8
p415
I1
sV\u6e56\u5357\u7701
p416
I2
sV\u4eba\u6c11\u653f\u5e9c
p417
I9
sV\u5019\u9009\u4eba
p418
I5
ssg26
g27
sa(dp419
g2
Vhttp://cache.baidu.com/c?m=9d78d513d9d430de4f9c90697d60c0106840c72362d88a5339968449e07946191c35bfee66650704a494263c5dfc5e5c9da16b2d200357e6c7d5d20c82e58f282d8b2329295bd51a589445b8cc3227cb229147edaa1de5baf43184aea589990b0d&p=882a934584d512a05ab3df264c07&newp=8b2a97069c934ea958b0c962584192695803ed633cd2db01298ffe0cc4241a1a1a3aecbf21211b04d6c17c6102ad4c5ce0f33271370834f1f689df08d2ecce7e6cc2&user=baidu&fm=sc&query=%CC%C6%BD%DC&qid=e13682c90007b45d&p1=26
p420
sg4
(dp421
V\u4f1a\u8bae
p422
I3
sV\u804c\u52a1
p423
I2
sV\u4eba\u5927\u5e38\u59d4\u4f1a
p424
I3
sV\u4eba\u4e8b
p425
I1
sV\u4ee3\u7406
p426
I2
sV\u4efb\u547d
p427
I2
sV\u540c\u5fd7
p428
I3
sV\u6295\u7968
p429
I1
sV\u97f6\u5c71\u5e02
p430
I10
sV\u4e8b\u9879
p431
I1
sV\u5e02\u957f
p432
I6
sV\u4eba\u6c11\u653f\u5e9c
p433
I12
ssg26
g27
sa(dp434
g2
Vhttp://cache.baidu.com/c?m=9f65cb4a8c8507ed4fece763104c903a4a0897634b968b492cc3933fc23904564711b2e73a7e474192d83d7a01ad4a58fdf04070321420c19bc2951c8afdc173719f27422b48cc064e9852fccb4127c42b965ffeaf6ea6e0b66dcdba978e9f025cdd22746df1f49c2a7603bc1e&p=856d8d1786cc41ac53b8dd2d021483&newp=8f64c54ad6c04af10dbe9b7c474ac1231610db2151d4d11e6b82c825d7331b001c3bbfb423241006d6c47d6205ae4257e0f535713d012ba3dda5c91d9fb4c57479d672&user=baidu&fm=sc&query=%CC%C6%BD%DC&qid=e13682c90007b45d&p1=28
p435
sg4
(dp436
V\u4e66\u8bb0
p437
I2
sV\u5e02\u59d4\u4e66\u8bb0
p438
I2
sV\u65b0\u95fb\u7f51
p439
I2
sV\u804c\u52a1
p440
I1
sV\u6e58\u6f6d
p441
I2
sV\u5927\u4f1a
p442
I1
sV\u5e02\u59d4
p443
I3
sV\u97f6\u5c71
p444
I10
sV\u515a\u653f
p445
I1
sV\u540c\u5fd7
p446
I4
sV\u8bb0\u8005
p447
I1
sV\u97f6\u5c71\u5e02
p448
I8
sV\u5e02\u957f
p449
I2
sV\u5e72\u90e8
p450
I1
sV\u4eba\u6c11\u653f\u5e9c
p451
I6
sV\u5019\u9009\u4eba
p452
I2
ssg26
g27
sa(dp453
g2
Vhttp://cache.baidu.com/c?m=9f65cb4a8c8507ed4fece763105392230e54f73d6a8b87503ec3933fc23846231a38b8ea703f41438d833b2756b2495ee9f434792a052bb590cb8e5dddccd37269d779203541c6171dc468dedc3721d650e64d9fde&p=856d8d1786cc41af5eb8dd2d021483&newp=8f64c54ad6c347f10dbe9b7c474ac1231610db2151d6d41f6b82c825d7331b001c3bbfb42324130fd7c4776204a84d57e0fa3378310727a3dda5c91d9fb4c57479d672&user=baidu&fm=sc&query=%CC%C6%BD%DC&qid=e13682c90007b45d&p1=29
p454
sg4
(dp455
V\u8eab\u5b50
p456
I2
sV\u6218\u53cb
p457
I3
sV\u5de5\u4f5c\u5c97\u4f4d
p458
I2
sV\u96c5\u5b89
p459
I2
sV\u5144\u5f1f\u59d0\u59b9
p460
I2
sV\u516c\u5b89\u5206\u5c40
p461
I5
sV\u5927\u961f
p462
I4
sV\u653f\u59d4
p463
I4
sV\u9886\u5bfc
p464
I3
sV\u56db\u5ddd
p465
I4
sV\u5206\u5c40
p466
I3
sV\u6e58\u4e2d
p467
I2
sV\u65f6\u5019
p468
I2
sV\u65b0\u95fb\u7f51
p469
I2
sV\u5730\u9707
p470
I2
sV\u6c11\u8b66
p471
I3
sV\u75c5\u9b54
p472
I5
sV\u6bcd\u4eb2
p473
I2
sV\u6c76\u5ddd
p474
I2
sV\u9752\u6625
p475
I2
ssg26
g27
sa(dp476
g2
Vhttp://cache.baidu.com/c?m=9f65cb4a8c8507ed4fece76310489f711923dc347996914468d4e415d33146000c27a5ec783f1006d0c17e6302af545ee8f33d74360325b08cc8ff109be4cc3c6ad567627f0bf73005a21db8bb3032b751&p=8b2a9717959b11a05ce6c53f4853&newp=8779c54ad2c802f10be2962f154992695803ed603dd2d401298ffe0cc4241a1a1a3aecbf21211a03d3ce7f6602a84a5feef53279370834f1f689df08d2ecce7e6cd6&user=baidu&fm=sc&query=%CC%C6%BD%DC&qid=e13682c90007b45d&p1=31
p477
sg4
(dp478
V\u4e66\u8bb0
p479
I1
sV\u63aa\u65bd
p480
I2
sV\u65e5\u8baf
p481
I2
sV\u5174\u9686
p482
I4
sV\u53d9\u6c38\u53bf
p483
I2
sV\u9879\u76ee
p484
I2
sV\u4e58\u5ba2
p485
I2
sV\u5c0f\u5b66
p486
I3
sV\u57ce\u897f
p487
I6
sV\u56db\u5ddd
p488
I2
sV\u53d9\u6c38
p489
I2
sV\u65b0\u95fb\u7f51
p490
I2
sV\u6cf8\u5dde
p491
I2
sV\u5c94\u5b50
p492
I2
sV\u5de5\u4eba
p493
I2
sV\u540c\u6b63\u534e
p494
I2
sV\u60c5\u51b5
p495
I2
sV\u5e7f\u5143
p496
I2
sV\u5de5\u5730
p497
I3
sV\u7801\u5934
p498
I2
ssg26
g27
sa(dp499
g2
Vhttp://cache.baidu.com/c?m=9f65cb4a8c8507ed4fece763105786711923d12367c0d0622e888e4891675e434664e8a677214401d5c02f6316af3f5bbdf66565377576b691c89f4aabb197797e9f2742774cd04b418219fec817259037902db3e946b9aeb56fd3f8ddc4ae2544bb57120af6e7fd2b&p=8b2a9717959b11a05bee922f4c5392&newp=8779c54ad5c047ec06be9b7c5c0e88231615d70e3cd7d101298ffe0cc4241a1a1a3aecbf21221206d0c17e6403a8485ae0f63274330434f1f689df08d2ecce7e6cd6&user=baidu&fm=sc&query=%CC%C6%BD%DC&qid=e13682c90007b45d&p1=34
p500
sg4
(dp501
V\u95ee\u9898
p502
I3
sV\u4ea7\u4e1a\u56ed
p503
I6
sV\u90e8\u957f
p504
I2
sV\u822a\u7a7a
p505
I6
sV\u9879\u76ee
p506
I3
sV\u5de5\u4e1a\u56ed\u533a
p507
I2
sV\u8054\u5e2d\u4f1a
p508
I3
sV\u6c47\u4e1c
p509
I1
sV\u56db\u5ddd
p510
I2
sV\u5de5\u4f5c\u6548\u7387
p511
I2
sV\u4f1a\u8bae\u5ba4
p512
I1
sV\u62db\u5546
p513
I2
sV\u6761\u4ef6
p514
I1
sV\u60c5\u51b5
p515
I2
sV\u8d21\u4e95
p516
I2
sV\u5e02\u59d4\u5e38\u59d4
p517
I3
sV\u8fc7\u7a0b
p518
I2
sV\u7d27\u6025\u53ec\u5f00
p519
I1
sV\u80a1\u4efd\u516c\u53f8
p520
I1
sV\u56ed\u533a
p521
I3
ssg26
g27
sa(dp522
g2
Vhttp://cache.baidu.com/c?m=9f65cb4a8c8507ed4fece763104880354f03c0222bd7a7572889d116c4735b36163bbcac27554158ceb00c7a04ad4a5fefed3175370125b09fdf883d87fdcd763bcd7a742613913063c468abdc3653d656e1&p=8b2a9717959b11a05deac53f4853&newp=8779c54ad3c402f10be2962f154992695803ed6337d4d001298ffe0cc4241a1a1a3aecbf21211b00d2ce796206ab425aeefa3071330034f1f689df08d2ecce7e6cd6&user=baidu&fm=sc&query=%CC%C6%BD%DC&qid=e13682c90007b45d&p1=35
p523
sg4
(dp524
V\u89c6\u9891
p525
I1
sV\u9891\u9053
p526
I1
sV\u4e13\u9898
p527
I1
sV\u6df1\u5733\u5e02
p528
I4
sV\u9886\u5bfc
p529
I2
sV\u5730\u65b9
p530
I4
sV\u533a\u59d4\u4e66\u8bb0
p531
I1
sV\u4f1a\u8bae
p532
I2
sV\u4eba\u6c11\u7f51
p533
I1
sV\u5468\u520a
p534
I1
sV\u6df1\u5733\u5e02\u4eba\u5927\u5e38\u59d4\u4f1a
p535
I3
sV\u5e02\u957f
p536
I1
sV\u66dd\u5149
p537
I2
sV\u52a0\u76df
p538
I2
sV\u9f99\u5c97\u533a
p539
I1
ssg26
g27
sa(dp540
g2
Vhttp://cache.baidu.com/c?m=9d78d513d9d430de4f9c90697d60c0106840c72362d88a5339968449e079461d1023a2ac27551300d2d27c1050f21641e9f72b71340025aa98cb953ad7c2e4572bfb2436721e854761a46eb8cb317f877fce&p=882a9546d19157fc57efca355557c6&newp=8b2a97069c934eaf5beac923114380231610db2151d2d701298ffe0cc4241a1a1a3aecbf21221205d6ce7a6604aa4358eff03274350034f1f689df08d2ecce7e6cc2&user=baidu&fm=sc&query=%CC%C6%BD%DC&qid=e13682c90007b45d&p1=38
p541
sg4
(dp542
V\u4e66\u8bb0
p543
I1
sV\u53bf\u957f
p544
I1
sV\u7814\u7a76\u751f
p545
I1
sV\u653f\u5e9c
p546
I1
sV\u7528\u4eba
p547
I1
sV\u53d9\u6c38\u53bf
p548
I2
sV\u56db\u5ddd\u7701
p549
I2
sV\u515a\u653f\u9886\u5bfc
p550
I2
sV\u53bf\u59d4
p551
I1
sV\u529e\u6cd5
p552
I1
sV\u6c49\u65cf
p553
I2
sV\u53d9\u6c38
p554
I2
sV\u4e2d\u5171\u515a\u5458
p555
I1
sV\u5b66\u5386
p556
I1
sV\u957f\u7f28
p557
I1
sV\u60c5\u51b5
p558
I1
sV\u89c4\u5b9a
p559
I1
sV\u5e72\u90e8
p560
I3
sV\u73b0\u804c
p561
I1
sV\u4eba\u9009
p562
I1
ssg26
g27
sa(dp563
g2
Vhttp://cache.baidu.com/c?m=9d78d513d9d430de4f9c90697d60c0106840c72362d88a5339968449e079461d1023a2ac27551300d2d27c1050f21641e9f72b703d0026aa98ce953adeb9935f4ef55e36721e854761a46eb8cb317f877fce&p=8b2a9703cc8818e604bd9b7e0e1c83&newp=9078c54ad6c04bfd00b8f82d0214c6231610db2151d7d0166b82c825d7331b001c3bbfb42324130ed8c57e6407ac4b5aebf73771320625a3dda5c91d9fb4c57479da7f611c&user=baidu&fm=sc&query=%CC%C6%BD%DC&qid=e13682c90007b45d&p1=40
p564
sg4
(dp565
V\u4e66\u8bb0
p566
I1
sV\u5178\u578b
p567
I2
sV\u5f71\u54cd\u529b
p568
I1
sV\u59bb\u5b50
p569
I1
sV\u7cbd\u5b50
p570
I1
sV\u8fbe\u5dde
p571
I4
sV\u804c\u52a1
p572
I4
sV\u603b\u7ecf\u7406
p573
I2
sV\u515a\u59d4\u4e66\u8bb0
p574
I2
sV\u8fbe\u5dde\u5e02
p575
I4
sV\u56db\u5ddd
p576
I2
sV\u5229\u7528
p577
I3
sV\u65b0\u95fb\u7f51
p578
I2
sV\u7535\u529b\u96c6\u56e2
p579
I2
sV\u8bb0\u8005
p580
I1
sV\u5229\u7528\u804c\u6743
p581
I1
sV\u8463\u4e8b\u957f
p582
I2
sV\u6709\u9650\u516c\u53f8
p583
I2
sV\u98df\u54c1
p584
I1
sV\u5173\u7cfb\u4eba
p585
I1
ssg26
g27
sa(dp586
g2
Vhttp://cache.baidu.com/c?m=9d78d513d9d430de4f9c90697d60c0106840c72362d88a5339968449e07946151c3ab0e776750704a49e28305dfa5e5c9da16b2d2a503db799cb8f48d8bb90352c892d337319814105d46daddc4652807ad605b7&p=8c36c54ad6c340ef0be296285c4fa5&newp=8b2a971a91821dff57ed947f517a98231610db2151d7da156b82c825d7331b001c3bbfb42324130fd3c0786707ac4b59eff23570310221a3dda5c91d9fb4c57479d760752c&user=baidu&fm=sc&query=%CC%C6%BD%DC&qid=e13682c90007b45d&p1=41
p587
sg4
(dp588
V\u901a\u548c\u6caa\u6e2f\u901a
p589
I2
sV\u6df1\u5733\u5e02
p590
I2
sV\u6df1\u5733
p591
I4
sV\u7eb3\u65af\u8fbe\u514b
p592
I2
sV\u4e2d\u5c0f\u677f
p593
I2
sV\u521b\u65b0\u6027
p594
I2
sV\u7279\u5f81
p595
I2
sV\u8d44\u672c
p596
I2
sV\u6e2f\u901a
p597
I2
sV\u7279\u70b9
p598
I1
sV\u7ed3\u6784\u6027
p599
I2
sV\u7f8e\u56fd
p600
I2
sV\u6df1\u6e2f
p601
I12
sV\u8bd5\u70b9
p602
I1
sV\u673a\u5236
p603
I1
sV\u4ef7\u683c
p604
I1
sV\u884c\u4e1a
p605
I2
sV\u521b\u4e1a\u677f
p606
I2
sV\u5e02\u573a
p607
I6
sV\u5dee\u8ddd
p608
I1
ssg26
g27
sa(dp609
g2
Vhttp://cache.baidu.com/c?m=9d78d513d9d430de4f9c90697d60c0106840c72362d88a5339968449e079461e1a3ab4f030226707d7c46b6776fe1403f7f3316f350623b286cb8c57aedcef2d2aff5b47721e864613a31bd5dc46529b66cf04&p=882a9545d69157fc57efca355557c6&newp=8b2a97069c934eaf58edc923114380231610db2151d6d3136b82c825d7331b001c3bbfb42324130fd3c0786707ac4b59eff23570310221a3dda5c91d9fb4c57479cb6d&user=baidu&fm=sc&query=%CC%C6%BD%DC&qid=e13682c90007b45d&p1=42
p610
sg4
(dp611
V\u5f04\u6f6e
p612
I1
sV\u6df1\u5733\u5e02
p613
I4
sV\u8d44\u672c
p614
I1
sV\u7eb3\u65af\u8fbe\u514b
p615
I2
sV\u5168\u7403\u5316
p616
I1
sV\u5012\u8ba1\u65f6
p617
I1
sV\u521b\u65b0\u6027
p618
I1
sV\u7279\u5f81
p619
I1
sV\u6df1\u5733
p620
I2
sV\u6df1\u6e2f
p621
I4
sV\u7279\u70b9
p622
I1
sV\u7f8e\u56fd
p623
I2
sV\u8bba\u575b
p624
I1
sV\u4e2d\u5c0f\u677f
p625
I1
sV\u8def\u6f14
p626
I1
sV\u521b\u4e1a\u677f
p627
I1
sV\u5e02\u573a
p628
I1
sV\u5e02\u957f
p629
I1
ssg26
g27
sa(dp630
g2
Vhttp://cache.baidu.com/c?m=9d78d513d9d430de4f9c90697d60c0106840c72362d88a5339968449e079461d1023a2ac27554b508499297001d81801b5ed656f370123b098cb8b4bc0bd96282e8f213f760b813510c419d88a1c639e7e&p=8b2a9703cc8818e604bd9b7e0e1183&newp=9078c54ad6c046fd00b8f82d0214c6231610db2151d3d701298ffe0cc4241a1a1a3aecbf21221205d6ce7a6604aa4358eff03274350034f1f689df08d2ecce7e7dd07258&user=baidu&fm=sc&query=%CC%C6%BD%DC&qid=e13682c90007b45d&p1=44
p631
sg4
(dp632
V\u8fbe\u5dde
p633
I6
sV\u56db\u5ddd\u7701
p634
I4
sV\u7f51\u7ad9
p635
I2
sV\u515a\u59d4\u4e66\u8bb0
p636
I2
sV\u4eba\u6c11\u68c0\u5bdf\u9662
p637
I12
sV\u6807\u9898
p638
I1
sV\u4eba\u6c11\u7f51
p639
I2
sV\u53d7\u8d3f\u6848
p640
I1
sV\u8bb0\u8005
p641
I2
sV\u7535\u529b\u96c6\u56e2
p642
I3
sV\u8463\u4e8b\u957f
p643
I3
sV\u6709\u9650\u516c\u53f8
p644
I2
sV\u6e20\u53bf
p645
I4
sV\u6210\u90fd
p646
I4
sV\u603b\u7ecf\u7406
p647
I2
ssg26
g27
sa(dp648
g2
Vhttp://cache.baidu.com/c?m=9f65cb4a8c8507ed4fece76310489f711923dc347996914468d4e415d33146000c27a5ec783f1006d0c17e6003a9545ee8f33d7137072bb68cc8ff109be4cc3c6ad567627f0bf73005a21db8bb3032b751&p=856d8d1786cc42aa0da4c7710f42&newp=8f64c54ad5c61ffa0be29634510092695803ed633cd0d601298ffe0cc4241a1a1a3aecbf21211b04d6c17c6102ad4c5ce0f33271370834f1f689df08d2ecce7e71dd&user=baidu&fm=sc&query=%CC%C6%BD%DC&qid=e13682c90007b45d&p1=46
p649
sg4
(dp650
V\u4e66\u8bb0
p651
I1
sV\u53bf\u957f
p652
I1
sV\u65e5\u8baf
p653
I2
sV\u4e3b\u4f53
p654
I1
sV\u4e07\u4f73
p655
I2
sV\u53d9\u6c38\u53bf
p656
I2
sV\u6cf8\u5dde
p657
I2
sV\u56db\u5ddd
p658
I2
sV\u53d9\u6c38
p659
I2
sV\u90e8\u95e8
p660
I3
sV\u65b0\u95fb\u7f51
p661
I2
sV\u5ba2\u8fd0
p662
I2
sV\u529b\u5ea6
p663
I2
sV\u836f\u76d1\u5c40
p664
I3
sV\u540c\u6b63\u534e
p665
I2
sV\u6c38\u57ce
p666
I2
sV\u4f01\u4e1a
p667
I2
sV\u4eba\u5458
p668
I2
sV\u98df\u54c1
p669
I3
sV\u529e\u516c\u5ba4
p670
I1
ssg26
g27
sa(dp671
g2
Vhttp://cache.baidu.com/c?m=9f65cb4a8c8507ed4fece76310578c374313d33f2bd7a7542e89cd5f93130a1c1871e3cc767e0d508791377a01ad4a5be9f32b75310023b69ccf8e5dddccc86e70d633712d5cd04e05a268b8ba4232b156872c98&p=8b2a970e8f9118f308e2947d065c92&newp=876ed416d9c11abe0abd9b7e0e1d80231610db2151d4db01298ffe0cc4241a1a1a3aecbf21221206d0c17e6403a84857e8f63477330834f1f689df08d2ecce7e749975&user=baidu&fm=sc&query=%CC%C6%BD%DC&qid=e13682c90007b45d&p1=48
p672
sg4
(dp673
V\u8fbe\u5dde
p674
I2
sV\u515a\u59d4\u4e66\u8bb0
p675
I1
sV\u56db\u5ddd
p676
I2
sV\u4eba\u6c11\u68c0\u5bdf\u9662
p677
I6
sV\u6d88\u606f
p678
I1
sV\u8bb0\u8005
p679
I1
sV\u7535\u529b\u96c6\u56e2
p680
I1
sV\u8463\u4e8b\u957f
p681
I1
sV\u6709\u9650\u516c\u53f8
p682
I1
sV\u6e20\u53bf
p683
I2
sV\u603b\u7ecf\u7406
p684
I1
ssg26
g27
sa(dp685
g2
Vhttp://cache.baidu.com/c?m=9d78d513d9d430de4f9c90697d60c0106840c72362d88a5339968449e07946170c71e3cc7b75554592946b6776f20909f7b17d3371547faa9bca8b4edfba922e328a25377a198c4013d40eafbc1c639e7e&p=882a9147c79b5bfc57efd524575d&newp=903dd22985cc43ff57e9960c4a4292695803ed6638dcc44324b9d71fd325001c1b69e7bd27201101d8c37d6204a5495bebf03479321766dada9fca458ae7c4&user=baidu&fm=sc&query=%CC%C6%BD%DC&qid=e13682c90007b45d&p1=49
p686
sg4
(dp687
V\u6587\u5316
p688
I4
sV\u65e5\u8baf
p689
I2
sV\u65f6\u4ee3
p690
I1
sV\u7ef5\u7af9
p691
I2
sV\u56db\u5ddd\u7701
p692
I2
sV\u6210\u90fd\u5e02
p693
I4
sV\u4e13\u4e1a
p694
I2
sV\u521b\u4e1a
p695
I3
sV\u56db\u5ddd
p696
I8
sV\u6210\u90fd
p697
I4
sV\u5916\u9970
p698
I3
sV\u8d8a\u91ce
p699
I6
sV\u65b0\u95fb\u7f51
p700
I4
sV\u5fb7\u9633
p701
I6
sV\u8d8a\u91ce\u8f66
p702
I3
sV\u6c7d\u8f66
p703
I7
sV\u65b0\u95fb
p704
I3
sV\u624b\u673a
p705
I2
sV\u4f01\u4e1a
p706
I2
sV\u7ef5\u7af9\u5e02
p707
I2
ssg26
g27
sa(dp708
g2
Vhttp://cache.baidu.com/c?m=9d78d513d9d430de4f9c90697d60c0106840c72362d88a5339968449e079461f0f71e3cc7b75554592946b6776f20909f7b17d3371547faa9bca8b4edfba9229328a25377a19834319d30eafbc1c639e7e&p=882a9646ddd219b50be2963f574c9c&newp=903dd22985cc43ff57ee97757f5183231615d70e3cdcd7116b82c825d7331b001c3bbfb42324130fd7c4776204a84d57ecf43c74340723a3dda5c91d9fb4c57479&user=baidu&fm=sc&query=%CC%C6%BD%DC&qid=e13682c90007b45d&p1=50
p709
sg4
(dp710
V\u4e66\u8bb0
p711
I1
sV\u7ecf\u6d4e
p712
I2
sV\u65e5\u8baf
p713
I2
sV\u7164\u70ad
p714
I2
sV\u53bf\u957f
p715
I1
sV\u7164\u77ff
p716
I5
sV\u5f62\u52bf
p717
I1
sV\u65b9\u9762
p718
I1
sV\u5e95\u7ebf
p719
I1
sV\u56db\u5ddd
p720
I2
sV\u8d23\u4efb
p721
I1
sV\u53d9\u6c38
p722
I2
sV\u6c47\u62a5
p723
I2
sV\u65b0\u95fb\u7f51
p724
I2
sV\u6cf8\u5dde
p725
I2
sV\u6b63\u4e1c
p726
I2
sV\u60c5\u51b5
p727
I2
sV\u8d1f\u8d23\u4eba
p728
I1
sV\u9690\u60a3
p729
I2
sV\u4f01\u4e1a
p730
I7
ssg26
g27
sa.(lp0
(lp1
I0
aI1
aI0
aI0
aa(lp2
I73
aI59
aa.(lp0
Vhttp://img1.voc.com.cn/UpLoadFile/2017/05/11/201705111532312958.png
p1
aS'https://tva2.sinaimg.cn/crop.0.117.358.358.180/5b1f61d5jw1ec5rprct4fj20a00hstce.jpg'
p2
a.