(lp0
(lp1
I7
aI10
aI9
aI8
aI12
aI13
aI2
aI7
aa(lp2
I12
aI12
aa(lp3
I12
aI12
aa(lp4
I12
aI10
aa(lp5
I12
aI12
aa.(lp0
S'http://y2.ifengimg.com/a/2015_13/504f145748fcdd9.jpg'
p1
aS'http://p0.ifengimg.com/haina/2016_42/d40ec4311f0b683_w1280_h960.jpg'
p2
ag2
aS'http://y1.ifengimg.com/cmpp/2015/03/26/15/4f498281-4a87-4ec5-b58c-c2e49ac576e8_size56_w550_h550.jpg'
p3
aS'http://p0.ifengimg.com/haina/2016_42/4ba4e7f5b9d84d2_w960_h1280.jpg'
p4
a.